target datalayout = "e-m:e-p270:32:32-p271:32:32-p272:64:64-i64:64-i128:128-f80:128-n8:16:32:64-S128"
target triple = "x86_64-pc-linux-gnu"

%"struct.__cxxabiv1::__dynamic_cast_info" = type { ptr, ptr, ptr, i64, ptr, ptr, i32, i32, i32, i32, i32, i32, i32, i8, i8, i8, i8, ptr }
%"class.__cxxabiv1::__si_class_type_info" = type { %"class.__cxxabiv1::__class_type_info", ptr }
%"class.__cxxabiv1::__class_type_info" = type { %"class.__cxxabiv1::__shim_type_info" }
%"class.__cxxabiv1::__shim_type_info" = type { %"class.std::type_info" }
%"class.std::type_info" = type { ptr, ptr }

; Function Attrs: alwaysinline mustprogress nounwind uwtable
define linkonce_odr hidden noundef ptr @_ZNSt27__type_info_implementations18__string_impl_base21__type_name_to_stringB8ne210000EPKc(ptr noundef %0) #10 comdat align 2 {
  %2 = alloca ptr, align 8
  store ptr %0, ptr %2, align 8, !tbaa !38
  %3 = load ptr, ptr %2, align 8, !tbaa !38
  ret ptr %3
}

; Function Attrs: alwaysinline mustprogress nounwind uwtable
define linkonce_odr hidden noundef zeroext i1 @_ZNSt27__type_info_implementations13__unique_impl4__eqB8ne210000EPKcS2_(ptr noundef %0, ptr noundef %1) #10 comdat align 2 {
  %3 = alloca ptr, align 8
  %4 = alloca ptr, align 8
  store ptr %0, ptr %3, align 8, !tbaa !38
  store ptr %1, ptr %4, align 8, !tbaa !38
  %5 = load ptr, ptr %3, align 8, !tbaa !38
  %6 = load ptr, ptr %4, align 8, !tbaa !38
  %7 = icmp eq ptr %5, %6
  ret i1 %7
}

; Function Attrs: mustprogress nounwind uwtable
define linkonce_odr hidden noundef ptr @_ZNKSt9type_info4nameB8ne210000Ev(ptr noundef nonnull align 8 dereferenceable(16) %0) #1 comdat align 2 {
  %2 = alloca ptr, align 8
  store ptr %0, ptr %2, align 8, !tbaa !31
  %3 = load ptr, ptr %2, align 8
  %4 = getelementptr inbounds nuw %"class.std::type_info", ptr %3, i32 0, i32 1
  %5 = load ptr, ptr %4, align 8, !tbaa !81
  %6 = call noundef ptr @_ZNSt27__type_info_implementations18__string_impl_base21__type_name_to_stringB8ne210000EPKc(ptr noundef %5) #11
  ret ptr %6
}

; Function Attrs: mustprogress nounwind uwtable
define linkonce_odr hidden noundef zeroext i1 @_ZNKSt9type_infoeqB8ne210000ERKS_(ptr noundef nonnull align 8 dereferenceable(16) %0, ptr noundef nonnull align 8 dereferenceable(16) %1) #1 comdat align 2 {
  %3 = alloca ptr, align 8
  %4 = alloca ptr, align 8
  store ptr %0, ptr %3, align 8, !tbaa !31
  store ptr %1, ptr %4, align 8, !tbaa !31
  %5 = load ptr, ptr %3, align 8
  %6 = getelementptr inbounds nuw %"class.std::type_info", ptr %5, i32 0, i32 1
  %7 = load ptr, ptr %6, align 8, !tbaa !81
  %8 = load ptr, ptr %4, align 8, !tbaa !31
  %9 = getelementptr inbounds nuw %"class.std::type_info", ptr %8, i32 0, i32 1
  %10 = load ptr, ptr %9, align 8, !tbaa !81
  %11 = call noundef zeroext i1 @_ZNSt27__type_info_implementations13__unique_impl4__eqB8ne210000EPKcS2_(ptr noundef %7, ptr noundef %10) #11
  ret i1 %11
}

; Function Attrs: mustprogress nounwind uwtable
define hidden void @_ZNK10__cxxabiv117__class_type_info29process_static_type_below_dstEPNS_19__dynamic_cast_infoEPKvi(ptr noundef nonnull align 8 dereferenceable(16) %0, ptr noundef %1, ptr noundef %2, i32 noundef %3) #1 align 2 {
  %5 = alloca ptr, align 8
  %6 = alloca ptr, align 8
  %7 = alloca ptr, align 8
  %8 = alloca i32, align 4
  store ptr %0, ptr %5, align 8, !tbaa !17
  store ptr %1, ptr %6, align 8, !tbaa !68
  store ptr %2, ptr %7, align 8, !tbaa !37
  store i32 %3, ptr %8, align 4, !tbaa !70
  %9 = load ptr, ptr %7, align 8, !tbaa !37
  %10 = load ptr, ptr %6, align 8, !tbaa !68
  %11 = getelementptr inbounds nuw %"struct.__cxxabiv1::__dynamic_cast_info", ptr %10, i32 0, i32 1
  %12 = load ptr, ptr %11, align 8, !tbaa !44
  %13 = icmp eq ptr %9, %12
  br i1 %13, label %14, label %24

14:                                               ; preds = %4
  %15 = load ptr, ptr %6, align 8, !tbaa !68
  %16 = getelementptr inbounds nuw %"struct.__cxxabiv1::__dynamic_cast_info", ptr %15, i32 0, i32 7
  %17 = load i32, ptr %16, align 4, !tbaa !50
  %18 = icmp ne i32 %17, 1
  br i1 %18, label %19, label %23

19:                                               ; preds = %14
  %20 = load i32, ptr %8, align 4, !tbaa !70
  %21 = load ptr, ptr %6, align 8, !tbaa !68
  %22 = getelementptr inbounds nuw %"struct.__cxxabiv1::__dynamic_cast_info", ptr %21, i32 0, i32 7
  store i32 %20, ptr %22, align 4, !tbaa !50
  br label %23

23:                                               ; preds = %19, %14
  br label %24

24:                                               ; preds = %23, %4
  ret void
}

; Function Attrs: inlinehint mustprogress nounwind uwtable
define internal noundef zeroext i1 @_ZL8is_equalPKSt9type_infoS1_b(ptr noundef %0, ptr noundef %1, i1 noundef zeroext %2) #5 {
  %4 = alloca i1, align 1
  %5 = alloca ptr, align 8
  %6 = alloca ptr, align 8
  %7 = alloca i8, align 1
  store ptr %0, ptr %5, align 8, !tbaa !31
  store ptr %1, ptr %6, align 8, !tbaa !31
  %8 = zext i1 %2 to i8
  store i8 %8, ptr %7, align 1, !tbaa !33
  %9 = load i8, ptr %7, align 1, !tbaa !33, !range !35, !noundef !36
  %10 = trunc i8 %9 to i1
  br i1 %10, label %15, label %11

11:                                               ; preds = %3
  %12 = load ptr, ptr %5, align 8, !tbaa !31
  %13 = load ptr, ptr %6, align 8, !tbaa !31
  %14 = call noundef zeroext i1 @_ZNKSt9type_infoeqB8ne210000ERKS_(ptr noundef nonnull align 8 dereferenceable(16) %12, ptr noundef nonnull align 8 dereferenceable(16) %13) #11
  store i1 %14, ptr %4, align 1
  br label %28

15:                                               ; preds = %3
  %16 = load ptr, ptr %5, align 8, !tbaa !31
  %17 = load ptr, ptr %6, align 8, !tbaa !31
  %18 = icmp eq ptr %16, %17
  br i1 %18, label %26, label %19

19:                                               ; preds = %15
  %20 = load ptr, ptr %5, align 8, !tbaa !31
  %21 = call noundef ptr @_ZNKSt9type_info4nameB8ne210000Ev(ptr noundef nonnull align 8 dereferenceable(16) %20) #11
  %22 = load ptr, ptr %6, align 8, !tbaa !31
  %23 = call noundef ptr @_ZNKSt9type_info4nameB8ne210000Ev(ptr noundef nonnull align 8 dereferenceable(16) %22) #11
  %24 = call i32 @strcmp(ptr noundef %21, ptr noundef %23) #14
  %25 = icmp eq i32 %24, 0
  br label %26

26:                                               ; preds = %19, %15
  %27 = phi i1 [ true, %15 ], [ %25, %19 ]
  store i1 %27, ptr %4, align 1
  br label %28

28:                                               ; preds = %26, %11
  %29 = load i1, ptr %4, align 1
  ret i1 %29
}

; Function Attrs: mustprogress uwtable
define hidden void @_ZNK10__cxxabiv120__si_class_type_info16search_below_dstEPNS_19__dynamic_cast_infoEPKvib(ptr noundef nonnull align 8 dereferenceable(24) %0, ptr noundef %1, ptr noundef %2, i32 noundef %3, i1 noundef zeroext %4) unnamed_addr #4 align 2 {
  %6 = alloca ptr, align 8
  %7 = alloca ptr, align 8
  %8 = alloca ptr, align 8
  %9 = alloca i32, align 4
  %10 = alloca i8, align 1
  %11 = alloca i8, align 1
  %12 = alloca i8, align 1
  store ptr %0, ptr %6, align 8, !tbaa !19
  store ptr %1, ptr %7, align 8, !tbaa !68
  store ptr %2, ptr %8, align 8, !tbaa !37
  store i32 %3, ptr %9, align 4, !tbaa !70
  %13 = zext i1 %4 to i8
  store i8 %13, ptr %10, align 1, !tbaa !33
  %14 = load ptr, ptr %6, align 8
  %15 = load ptr, ptr %7, align 8, !tbaa !68
  %16 = getelementptr inbounds nuw %"struct.__cxxabiv1::__dynamic_cast_info", ptr %15, i32 0, i32 2
  %17 = load ptr, ptr %16, align 8, !tbaa !45
  %18 = load i8, ptr %10, align 1, !tbaa !33, !range !35, !noundef !36
  %19 = trunc i8 %18 to i1
  %20 = call noundef zeroext i1 @_ZL8is_equalPKSt9type_infoS1_b(ptr noundef %14, ptr noundef %17, i1 noundef zeroext %19)
  br i1 %20, label %21, label %25

21:                                               ; preds = %5
  %22 = load ptr, ptr %7, align 8, !tbaa !68
  %23 = load ptr, ptr %8, align 8, !tbaa !37
  %24 = load i32, ptr %9, align 4, !tbaa !70
  call void @_ZNK10__cxxabiv117__class_type_info29process_static_type_below_dstEPNS_19__dynamic_cast_infoEPKvi(ptr noundef nonnull align 8 dereferenceable(16) %14, ptr noundef %22, ptr noundef %23, i32 noundef %24)
  br label %133

25:                                               ; preds = %5
  %26 = load ptr, ptr %7, align 8, !tbaa !68
  %27 = getelementptr inbounds nuw %"struct.__cxxabiv1::__dynamic_cast_info", ptr %26, i32 0, i32 0
  %28 = load ptr, ptr %27, align 8, !tbaa !40
  %29 = load i8, ptr %10, align 1, !tbaa !33, !range !35, !noundef !36
  %30 = trunc i8 %29 to i1
  %31 = call noundef zeroext i1 @_ZL8is_equalPKSt9type_infoS1_b(ptr noundef %14, ptr noundef %28, i1 noundef zeroext %30)
  br i1 %31, label %32, label %121

32:                                               ; preds = %25
  %33 = load ptr, ptr %8, align 8, !tbaa !37
  %34 = load ptr, ptr %7, align 8, !tbaa !68
  %35 = getelementptr inbounds nuw %"struct.__cxxabiv1::__dynamic_cast_info", ptr %34, i32 0, i32 4
  %36 = load ptr, ptr %35, align 8, !tbaa !47
  %37 = icmp eq ptr %33, %36
  br i1 %37, label %44, label %38

38:                                               ; preds = %32
  %39 = load ptr, ptr %8, align 8, !tbaa !37
  %40 = load ptr, ptr %7, align 8, !tbaa !68
  %41 = getelementptr inbounds nuw %"struct.__cxxabiv1::__dynamic_cast_info", ptr %40, i32 0, i32 5
  %42 = load ptr, ptr %41, align 8, !tbaa !48
  %43 = icmp eq ptr %39, %42
  br i1 %43, label %44, label %51

44:                                               ; preds = %38, %32
  %45 = load i32, ptr %9, align 4, !tbaa !70
  %46 = icmp eq i32 %45, 1
  br i1 %46, label %47, label %50

47:                                               ; preds = %44
  %48 = load ptr, ptr %7, align 8, !tbaa !68
  %49 = getelementptr inbounds nuw %"struct.__cxxabiv1::__dynamic_cast_info", ptr %48, i32 0, i32 8
  store i32 1, ptr %49, align 8, !tbaa !51
  br label %50

50:                                               ; preds = %47, %44
  br label %120

51:                                               ; preds = %38
  %52 = load i32, ptr %9, align 4, !tbaa !70
  %53 = load ptr, ptr %7, align 8, !tbaa !68
  %54 = getelementptr inbounds nuw %"struct.__cxxabiv1::__dynamic_cast_info", ptr %53, i32 0, i32 8
  store i32 %52, ptr %54, align 8, !tbaa !51
  call void @llvm.lifetime.start.p0(i64 1, ptr %11) #11
  store i8 0, ptr %11, align 1, !tbaa !33
  %55 = load ptr, ptr %7, align 8, !tbaa !68
  %56 = getelementptr inbounds nuw %"struct.__cxxabiv1::__dynamic_cast_info", ptr %55, i32 0, i32 11
  %57 = load i32, ptr %56, align 4, !tbaa !54
  %58 = icmp ne i32 %57, 4
  br i1 %58, label %59, label %95

59:                                               ; preds = %51
  call void @llvm.lifetime.start.p0(i64 1, ptr %12) #11
  store i8 0, ptr %12, align 1, !tbaa !33
  %60 = load ptr, ptr %7, align 8, !tbaa !68
  %61 = getelementptr inbounds nuw %"struct.__cxxabiv1::__dynamic_cast_info", ptr %60, i32 0, i32 13
  store i8 0, ptr %61, align 4, !tbaa !56
  %62 = load ptr, ptr %7, align 8, !tbaa !68
  %63 = getelementptr inbounds nuw %"struct.__cxxabiv1::__dynamic_cast_info", ptr %62, i32 0, i32 14
  store i8 0, ptr %63, align 1, !tbaa !57
  %64 = getelementptr inbounds nuw %"class.__cxxabiv1::__si_class_type_info", ptr %14, i32 0, i32 1
  %65 = load ptr, ptr %64, align 8, !tbaa !71
  %66 = load ptr, ptr %7, align 8, !tbaa !68
  %67 = load ptr, ptr %8, align 8, !tbaa !37
  %68 = load ptr, ptr %8, align 8, !tbaa !37
  %69 = load i8, ptr %10, align 1, !tbaa !33, !range !35, !noundef !36
  %70 = trunc i8 %69 to i1
  %71 = load ptr, ptr %65, align 8, !tbaa !61
  %72 = getelementptr inbounds ptr, ptr %71, i64 5
  %73 = load ptr, ptr %72, align 8
  call void %73(ptr noundef nonnull align 8 dereferenceable(16) %65, ptr noundef %66, ptr noundef %67, ptr noundef %68, i32 noundef 1, i1 noundef zeroext %70)
  %74 = load ptr, ptr %7, align 8, !tbaa !68
  %75 = getelementptr inbounds nuw %"struct.__cxxabiv1::__dynamic_cast_info", ptr %74, i32 0, i32 14
  %76 = load i8, ptr %75, align 1, !tbaa !57, !range !35, !noundef !36
  %77 = trunc i8 %76 to i1
  br i1 %77, label %78, label %85

78:                                               ; preds = %59
  store i8 1, ptr %12, align 1, !tbaa !33
  %79 = load ptr, ptr %7, align 8, !tbaa !68
  %80 = getelementptr inbounds nuw %"struct.__cxxabiv1::__dynamic_cast_info", ptr %79, i32 0, i32 13
  %81 = load i8, ptr %80, align 4, !tbaa !56, !range !35, !noundef !36
  %82 = trunc i8 %81 to i1
  br i1 %82, label %83, label %84

83:                                               ; preds = %78
  store i8 1, ptr %11, align 1, !tbaa !33
  br label %84

84:                                               ; preds = %83, %78
  br label %85

85:                                               ; preds = %84, %59
  %86 = load i8, ptr %12, align 1, !tbaa !33, !range !35, !noundef !36
  %87 = trunc i8 %86 to i1
  br i1 %87, label %88, label %91

88:                                               ; preds = %85
  %89 = load ptr, ptr %7, align 8, !tbaa !68
  %90 = getelementptr inbounds nuw %"struct.__cxxabiv1::__dynamic_cast_info", ptr %89, i32 0, i32 11
  store i32 3, ptr %90, align 4, !tbaa !54
  br label %94

91:                                               ; preds = %85
  %92 = load ptr, ptr %7, align 8, !tbaa !68
  %93 = getelementptr inbounds nuw %"struct.__cxxabiv1::__dynamic_cast_info", ptr %92, i32 0, i32 11
  store i32 4, ptr %93, align 4, !tbaa !54
  br label %94

94:                                               ; preds = %91, %88
  call void @llvm.lifetime.end.p0(i64 1, ptr %12) #11
  br label %95

95:                                               ; preds = %94, %51
  %96 = load i8, ptr %11, align 1, !tbaa !33, !range !35, !noundef !36
  %97 = trunc i8 %96 to i1
  br i1 %97, label %119, label %98

98:                                               ; preds = %95
  %99 = load ptr, ptr %8, align 8, !tbaa !37
  %100 = load ptr, ptr %7, align 8, !tbaa !68
  %101 = getelementptr inbounds nuw %"struct.__cxxabiv1::__dynamic_cast_info", ptr %100, i32 0, i32 5
  store ptr %99, ptr %101, align 8, !tbaa !48
  %102 = load ptr, ptr %7, align 8, !tbaa !68
  %103 = getelementptr inbounds nuw %"struct.__cxxabiv1::__dynamic_cast_info", ptr %102, i32 0, i32 10
  %104 = load i32, ptr %103, align 8, !tbaa !53
  %105 = add nsw i32 %104, 1
  store i32 %105, ptr %103, align 8, !tbaa !53
  %106 = load ptr, ptr %7, align 8, !tbaa !68
  %107 = getelementptr inbounds nuw %"struct.__cxxabiv1::__dynamic_cast_info", ptr %106, i32 0, i32 9
  %108 = load i32, ptr %107, align 4, !tbaa !52
  %109 = icmp eq i32 %108, 1
  br i1 %109, label %110, label %118

110:                                              ; preds = %98
  %111 = load ptr, ptr %7, align 8, !tbaa !68
  %112 = getelementptr inbounds nuw %"struct.__cxxabiv1::__dynamic_cast_info", ptr %111, i32 0, i32 6
  %113 = load i32, ptr %112, align 8, !tbaa !49
  %114 = icmp eq i32 %113, 2
  br i1 %114, label %115, label %118

115:                                              ; preds = %110
  %116 = load ptr, ptr %7, align 8, !tbaa !68
  %117 = getelementptr inbounds nuw %"struct.__cxxabiv1::__dynamic_cast_info", ptr %116, i32 0, i32 15
  store i8 1, ptr %117, align 2, !tbaa !58
  br label %118

118:                                              ; preds = %115, %110, %98
  br label %119

119:                                              ; preds = %118, %95
  call void @llvm.lifetime.end.p0(i64 1, ptr %11) #11
  br label %120

120:                                              ; preds = %119, %50
  br label %132

121:                                              ; preds = %25
  %122 = getelementptr inbounds nuw %"class.__cxxabiv1::__si_class_type_info", ptr %14, i32 0, i32 1
  %123 = load ptr, ptr %122, align 8, !tbaa !71
  %124 = load ptr, ptr %7, align 8, !tbaa !68
  %125 = load ptr, ptr %8, align 8, !tbaa !37
  %126 = load i32, ptr %9, align 4, !tbaa !70
  %127 = load i8, ptr %10, align 1, !tbaa !33, !range !35, !noundef !36
  %128 = trunc i8 %127 to i1
  %129 = load ptr, ptr %123, align 8, !tbaa !61
  %130 = getelementptr inbounds ptr, ptr %129, i64 6
  %131 = load ptr, ptr %130, align 8
  call void %131(ptr noundef nonnull align 8 dereferenceable(16) %123, ptr noundef %124, ptr noundef %125, i32 noundef %126, i1 noundef zeroext %128)
  br label %132

132:                                              ; preds = %121, %120
  br label %133

133:                                              ; preds = %132, %21
  ret void
}