; Function Attrs: mustprogress uwtable
define hidden void @_ZNK10__cxxabiv120__si_class_type_info16search_below_dstEPNS_19__dynamic_cast_infoEPKvib(ptr noundef nonnull readonly align 8 captures(address) dereferenceable(24) %0, ptr noundef %1, ptr noundef %2, i32 noundef %3, i1 noundef zeroext %4) unnamed_addr #7 align 2 {
  %6 = getelementptr inbounds nuw i8, ptr %1, i64 16
  %7 = load ptr, ptr %6, align 8, !tbaa !18
  br i1 %4, label %14, label %8

8:                                                ; preds = %5
  %9 = getelementptr inbounds nuw i8, ptr %0, i64 8
  %10 = load ptr, ptr %9, align 8, !tbaa !4
  %11 = getelementptr inbounds nuw i8, ptr %7, i64 8
  %12 = load ptr, ptr %11, align 8, !tbaa !4
  %13 = icmp eq ptr %10, %12
  br i1 %13, label %_ZL8is_equalPKSt9type_infoS1_b.exit.thread, label %29

14:                                               ; preds = %5
  %15 = icmp eq ptr %0, %7
  br i1 %15, label %_ZL8is_equalPKSt9type_infoS1_b.exit.thread, label %_ZL8is_equalPKSt9type_infoS1_b.exit

_ZL8is_equalPKSt9type_infoS1_b.exit:              ; preds = %14
  %16 = getelementptr inbounds nuw i8, ptr %0, i64 8
  %17 = load ptr, ptr %16, align 8, !tbaa !4
  %18 = getelementptr inbounds nuw i8, ptr %7, i64 8
  %19 = load ptr, ptr %18, align 8, !tbaa !4
  %20 = tail call i32 @strcmp(ptr noundef nonnull dereferenceable(1) %17, ptr noundef nonnull dereferenceable(1) %19) #22
  %21 = icmp eq i32 %20, 0
  br i1 %21, label %_ZL8is_equalPKSt9type_infoS1_b.exit.thread, label %34

_ZL8is_equalPKSt9type_infoS1_b.exit.thread:       ; preds = %14, %8, %_ZL8is_equalPKSt9type_infoS1_b.exit
  %22 = getelementptr inbounds nuw i8, ptr %1, i64 8
  %23 = load ptr, ptr %22, align 8, !tbaa !17
  %24 = icmp eq ptr %2, %23
  br i1 %24, label %25, label %_ZNK10__cxxabiv117__class_type_info29process_static_type_below_dstEPNS_19__dynamic_cast_infoEPKvi.exit

25:                                               ; preds = %_ZL8is_equalPKSt9type_infoS1_b.exit.thread
  %26 = getelementptr inbounds nuw i8, ptr %1, i64 52
  %27 = load i32, ptr %26, align 4, !tbaa !56
  %.not.i = icmp eq i32 %27, 1
  br i1 %.not.i, label %_ZNK10__cxxabiv117__class_type_info29process_static_type_below_dstEPNS_19__dynamic_cast_infoEPKvi.exit, label %28

28:                                               ; preds = %25
  store i32 %3, ptr %26, align 4, !tbaa !56
  br label %_ZNK10__cxxabiv117__class_type_info29process_static_type_below_dstEPNS_19__dynamic_cast_infoEPKvi.exit

29:                                               ; preds = %8
  %30 = load ptr, ptr %1, align 8, !tbaa !11
  %31 = getelementptr inbounds nuw i8, ptr %30, i64 8
  %32 = load ptr, ptr %31, align 8, !tbaa !4
  %33 = icmp eq ptr %10, %32
  br i1 %33, label %_ZL8is_equalPKSt9type_infoS1_b.exit43.thread, label %81

34:                                               ; preds = %_ZL8is_equalPKSt9type_infoS1_b.exit
  %35 = load ptr, ptr %1, align 8, !tbaa !11
  %36 = icmp eq ptr %0, %35
  br i1 %36, label %_ZL8is_equalPKSt9type_infoS1_b.exit43.thread, label %_ZL8is_equalPKSt9type_infoS1_b.exit43

_ZL8is_equalPKSt9type_infoS1_b.exit43:            ; preds = %34
  %37 = getelementptr inbounds nuw i8, ptr %35, i64 8
  %38 = load ptr, ptr %37, align 8, !tbaa !4
  %39 = tail call i32 @strcmp(ptr noundef nonnull dereferenceable(1) %17, ptr noundef nonnull dereferenceable(1) %38) #22
  %40 = icmp eq i32 %39, 0
  br i1 %40, label %_ZL8is_equalPKSt9type_infoS1_b.exit43.thread, label %81

_ZL8is_equalPKSt9type_infoS1_b.exit43.thread:     ; preds = %34, %29, %_ZL8is_equalPKSt9type_infoS1_b.exit43
  %41 = getelementptr inbounds nuw i8, ptr %1, i64 32
  %42 = load ptr, ptr %41, align 8, !tbaa !26
  %43 = icmp eq ptr %2, %42
  br i1 %43, label %48, label %44

44:                                               ; preds = %_ZL8is_equalPKSt9type_infoS1_b.exit43.thread
  %45 = getelementptr inbounds nuw i8, ptr %1, i64 40
  %46 = load ptr, ptr %45, align 8, !tbaa !34
  %47 = icmp eq ptr %2, %46
  br i1 %47, label %48, label %52

48:                                               ; preds = %44, %_ZL8is_equalPKSt9type_infoS1_b.exit43.thread
  %49 = icmp eq i32 %3, 1
  br i1 %49, label %50, label %_ZNK10__cxxabiv117__class_type_info29process_static_type_below_dstEPNS_19__dynamic_cast_infoEPKvi.exit

50:                                               ; preds = %48
  %51 = getelementptr inbounds nuw i8, ptr %1, i64 56
  store i32 1, ptr %51, align 8, !tbaa !57
  br label %_ZNK10__cxxabiv117__class_type_info29process_static_type_below_dstEPNS_19__dynamic_cast_infoEPKvi.exit

52:                                               ; preds = %44
  %53 = getelementptr inbounds nuw i8, ptr %1, i64 56
  store i32 %3, ptr %53, align 8, !tbaa !57
  %54 = getelementptr inbounds nuw i8, ptr %1, i64 68
  %55 = load i32, ptr %54, align 4, !tbaa !58
  %.not = icmp eq i32 %55, 4
  br i1 %.not, label %.critedge, label %56

56:                                               ; preds = %52
  %57 = getelementptr inbounds nuw i8, ptr %1, i64 76
  store i8 0, ptr %57, align 4, !tbaa !29
  %58 = getelementptr inbounds nuw i8, ptr %1, i64 77
  store i8 0, ptr %58, align 1, !tbaa !30
  %59 = getelementptr inbounds nuw i8, ptr %0, i64 16
  %60 = load ptr, ptr %59, align 8, !tbaa !35
  %61 = load ptr, ptr %60, align 8, !tbaa !23
  %62 = getelementptr inbounds nuw i8, ptr %61, i64 40
  %63 = load ptr, ptr %62, align 8
  tail call void %63(ptr noundef nonnull align 8 dereferenceable(16) %60, ptr noundef nonnull %1, ptr noundef %2, ptr noundef %2, i32 noundef 1, i1 noundef zeroext %4)
  %64 = load i8, ptr %58, align 1, !tbaa !30, !range !41, !noundef !42
  %65 = trunc nuw i8 %64 to i1
  br i1 %65, label %66, label %.critedge41

66:                                               ; preds = %56
  %67 = load i8, ptr %57, align 4, !tbaa !29, !range !41, !noundef !42
  %68 = trunc nuw i8 %67 to i1
  store i32 3, ptr %54, align 4, !tbaa !58
  br i1 %68, label %_ZNK10__cxxabiv117__class_type_info29process_static_type_below_dstEPNS_19__dynamic_cast_infoEPKvi.exit, label %.critedge

.critedge41:                                      ; preds = %56
  store i32 4, ptr %54, align 4, !tbaa !58
  br label %.critedge

.critedge:                                        ; preds = %52, %.critedge41, %66
  store ptr %2, ptr %45, align 8, !tbaa !34
  %69 = getelementptr inbounds nuw i8, ptr %1, i64 64
  %70 = load i32, ptr %69, align 8, !tbaa !33
  %71 = add nsw i32 %70, 1
  store i32 %71, ptr %69, align 8, !tbaa !33
  %72 = getelementptr inbounds nuw i8, ptr %1, i64 60
  %73 = load i32, ptr %72, align 4, !tbaa !32
  %74 = icmp eq i32 %73, 1
  br i1 %74, label %75, label %_ZNK10__cxxabiv117__class_type_info29process_static_type_below_dstEPNS_19__dynamic_cast_infoEPKvi.exit

75:                                               ; preds = %.critedge
  %76 = getelementptr inbounds nuw i8, ptr %1, i64 48
  %77 = load i32, ptr %76, align 8, !tbaa !25
  %78 = icmp eq i32 %77, 2
  br i1 %78, label %79, label %_ZNK10__cxxabiv117__class_type_info29process_static_type_below_dstEPNS_19__dynamic_cast_infoEPKvi.exit

79:                                               ; preds = %75
  %80 = getelementptr inbounds nuw i8, ptr %1, i64 78
  store i8 1, ptr %80, align 2, !tbaa !31
  br label %_ZNK10__cxxabiv117__class_type_info29process_static_type_below_dstEPNS_19__dynamic_cast_infoEPKvi.exit

81:                                               ; preds = %29, %_ZL8is_equalPKSt9type_infoS1_b.exit43
  %82 = getelementptr inbounds nuw i8, ptr %0, i64 16
  %83 = load ptr, ptr %82, align 8, !tbaa !35
  %84 = load ptr, ptr %83, align 8, !tbaa !23
  %85 = getelementptr inbounds nuw i8, ptr %84, i64 48
  %86 = load ptr, ptr %85, align 8
  tail call void %86(ptr noundef nonnull align 8 dereferenceable(16) %83, ptr noundef nonnull %1, ptr noundef %2, i32 noundef %3, i1 noundef zeroext %4)
  br label %_ZNK10__cxxabiv117__class_type_info29process_static_type_below_dstEPNS_19__dynamic_cast_infoEPKvi.exit

_ZNK10__cxxabiv117__class_type_info29process_static_type_below_dstEPNS_19__dynamic_cast_infoEPKvi.exit: ; preds = %28, %25, %_ZL8is_equalPKSt9type_infoS1_b.exit.thread, %66, %79, %75, %.critedge, %81, %48, %50
  ret void
}